target datalayout = "e-m:e-p270:32:32-p271:32:32-p272:64:64-i64:64-i128:128-f80:128-n8:16:32:64-S128"
target triple = "x86_64-pc-linux-gnu"

%"class.o3dgc::Arithmetic_Codec" = type <{ ptr, ptr, ptr, i32, i32, i32, i32, i32, [4 x i8] }>

@.str.9 = private unnamed_addr constant [24 x i8] c"invalid to stop decoder\00", align 1

; Function Attrs: mustprogress uwtable
define hidden void @_ZN5o3dgc16Arithmetic_Codec12stop_decoderEv(ptr noundef nonnull align 8 dereferenceable(44) %0) #0 align 2 {
  %2 = alloca ptr, align 8
  store ptr %0, ptr %2, align 8
  %3 = load ptr, ptr %2, align 8
  %4 = getelementptr inbounds nuw %"class.o3dgc::Arithmetic_Codec", ptr %3, i32 0, i32 7
  %5 = load i32, ptr %4, align 8
  %6 = icmp ne i32 %5, 2
  br i1 %6, label %7, label %8

7:                                                ; preds = %1
  call void @_ZN5o3dgcL8AC_ErrorEPKc(ptr noundef @.str.9) #13
  unreachable

8:                                                ; preds = %1
  %9 = getelementptr inbounds nuw %"class.o3dgc::Arithmetic_Codec", ptr %3, i32 0, i32 7
  store i32 0, ptr %9, align 8
  ret void
}