; Function Attrs: mustprogress uwtable
define hidden void @_ZN5o3dgc16Arithmetic_Codec12stop_decoderEv(ptr noundef nonnull align 8 captures(none) dereferenceable(44) %0) local_unnamed_addr #5 align 2 {
  %2 = getelementptr inbounds nuw i8, ptr %0, i64 40
  %3 = load i32, ptr %2, align 8
  %.not = icmp eq i32 %3, 2
  br i1 %.not, label %5, label %4

4:                                                ; preds = %1
  tail call fastcc void @_ZN5o3dgcL8AC_ErrorEPKc(ptr noundef nonnull @.str.9) #16
  unreachable

5:                                                ; preds = %1
  store i32 0, ptr %2, align 8
  ret void
}